; Function Attrs: nounwind uwtable
define noalias noundef ptr @Acb_NtkCollectNewTfi(ptr noundef captures(none) %0, i32 noundef %1, ptr noundef readonly captures(none) %2, ptr noundef readonly captures(none) %3, ptr noundef writeonly captures(none) %4) local_unnamed_addr #0 {
  %6 = tail call noalias dereferenceable_or_null(16) ptr @malloc(i64 noundef 16) #24
  %7 = getelementptr inbounds nuw i8, ptr %6, i64 4
  store i32 0, ptr %7, align 4, !tbaa !15
  store i32 100, ptr %6, align 8, !tbaa !31
  %8 = tail call noalias dereferenceable_or_null(400) ptr @malloc(i64 noundef 400) #24
  %9 = getelementptr inbounds nuw i8, ptr %6, i64 8
  store ptr %8, ptr %9, align 8, !tbaa !18
  %10 = getelementptr i8, ptr %0, i64 260
  %.val.i = load i32, ptr %10, align 4, !tbaa !15
  %11 = icmp slt i32 %.val.i, 1
  br i1 %11, label %12, label %Acb_NtkIncTravId.exit

12:                                               ; preds = %5
  %13 = getelementptr inbounds nuw i8, ptr %0, i64 256
  %14 = getelementptr inbounds nuw i8, ptr %0, i64 112
  %.val.i.i = load i32, ptr %14, align 8, !tbaa !12
  %15 = load i32, ptr %13, align 8, !tbaa !31
  %.not.i.i.i.i = icmp slt i32 %15, %.val.i.i
  br i1 %.not.i.i.i.i, label %16, label %Vec_IntGrow.exit.i.i.i

16:                                               ; preds = %12
  %17 = getelementptr inbounds nuw i8, ptr %0, i64 264
  %18 = load ptr, ptr %17, align 8, !tbaa !18
  %.not9.i.i.i.i = icmp eq ptr %18, null
  %19 = sext i32 %.val.i.i to i64
  %20 = shl nsw i64 %19, 2
  br i1 %.not9.i.i.i.i, label %23, label %21

21:                                               ; preds = %16
  %22 = tail call ptr @realloc(ptr noundef nonnull %18, i64 noundef %20) #23
  br label %25

23:                                               ; preds = %16
  %24 = tail call noalias ptr @malloc(i64 noundef %20) #24
  br label %25

25:                                               ; preds = %23, %21
  %26 = phi ptr [ %22, %21 ], [ %24, %23 ]
  store ptr %26, ptr %17, align 8, !tbaa !18
  store i32 %.val.i.i, ptr %13, align 8, !tbaa !31
  br label %Vec_IntGrow.exit.i.i.i

Vec_IntGrow.exit.i.i.i:                           ; preds = %25, %12
  %27 = icmp sgt i32 %.val.i.i, 0
  br i1 %27, label %.lr.ph.i.i.i, label %Acb_NtkCleanObjTravs.exit.i

.lr.ph.i.i.i:                                     ; preds = %Vec_IntGrow.exit.i.i.i
  %28 = getelementptr inbounds nuw i8, ptr %0, i64 264
  %29 = load ptr, ptr %28, align 8, !tbaa !18
  %wide.trip.count.i.i.i = zext nneg i32 %.val.i.i to i64
  %30 = shl nuw nsw i64 %wide.trip.count.i.i.i, 2
  tail call void @llvm.memset.p0.i64(ptr align 4 %29, i8 0, i64 %30, i1 false), !tbaa !19
  br label %Acb_NtkCleanObjTravs.exit.i

Acb_NtkCleanObjTravs.exit.i:                      ; preds = %.lr.ph.i.i.i, %Vec_IntGrow.exit.i.i.i
  store i32 %.val.i.i, ptr %10, align 4, !tbaa !15
  br label %Acb_NtkIncTravId.exit

Acb_NtkIncTravId.exit:                            ; preds = %5, %Acb_NtkCleanObjTravs.exit.i
  %31 = getelementptr inbounds nuw i8, ptr %0, i64 96
  %32 = load i32, ptr %31, align 8, !tbaa !73
  %33 = add nsw i32 %32, 1
  store i32 %33, ptr %31, align 8, !tbaa !73
  %34 = getelementptr i8, ptr %2, i64 4
  %.val2831 = load i32, ptr %34, align 4, !tbaa !15
  %35 = icmp sgt i32 %.val2831, 0
  br i1 %35, label %.lr.ph, label %.critedge

.lr.ph:                                           ; preds = %Acb_NtkIncTravId.exit
  %36 = getelementptr i8, ptr %2, i64 8
  br label %37

37:                                               ; preds = %.lr.ph, %37
  %indvars.iv = phi i64 [ 0, %.lr.ph ], [ %indvars.iv.next, %37 ]
  %.val30 = load ptr, ptr %36, align 8, !tbaa !18
  %38 = getelementptr inbounds nuw i32, ptr %.val30, i64 %indvars.iv
  %39 = load i32, ptr %38, align 4, !tbaa !19
  tail call void @Acb_NtkCollectNewTfi1_rec(ptr noundef %0, i32 noundef %39, ptr noundef nonnull %6)
  %indvars.iv.next = add nuw nsw i64 %indvars.iv, 1
  %.val28 = load i32, ptr %34, align 4, !tbaa !15
  %40 = sext i32 %.val28 to i64
  %41 = icmp slt i64 %indvars.iv.next, %40
  br i1 %41, label %37, label %.critedge, !llvm.loop !94

.critedge:                                        ; preds = %37, %Acb_NtkIncTravId.exit
  tail call void @Acb_NtkCollectNewTfi1_rec(ptr noundef %0, i32 noundef %1, ptr noundef nonnull %6)
  %42 = load i32, ptr %7, align 4, !tbaa !15
  %43 = add nsw i32 %42, -1
  store i32 %43, ptr %7, align 4, !tbaa !15
  store i32 %43, ptr %4, align 4, !tbaa !19
  %44 = getelementptr i8, ptr %3, i64 4
  %.val33 = load i32, ptr %44, align 4, !tbaa !15
  %45 = icmp sgt i32 %.val33, 0
  br i1 %45, label %.lr.ph35, label %.critedge2

.lr.ph35:                                         ; preds = %.critedge
  %46 = getelementptr i8, ptr %3, i64 8
  br label %47

47:                                               ; preds = %.lr.ph35, %47
  %indvars.iv37 = phi i64 [ 0, %.lr.ph35 ], [ %indvars.iv.next38, %47 ]
  %.val29 = load ptr, ptr %46, align 8, !tbaa !18
  %48 = getelementptr inbounds nuw i32, ptr %.val29, i64 %indvars.iv37
  %49 = load i32, ptr %48, align 4, !tbaa !19
  tail call void @Acb_NtkCollectNewTfi2_rec(ptr noundef %0, i32 noundef %49, ptr noundef nonnull %6)
  %indvars.iv.next38 = add nuw nsw i64 %indvars.iv37, 1
  %.val = load i32, ptr %44, align 4, !tbaa !15
  %50 = sext i32 %.val to i64
  %51 = icmp slt i64 %indvars.iv.next38, %50
  br i1 %51, label %47, label %.critedge2.loopexit, !llvm.loop !95

.critedge2.loopexit:                              ; preds = %47
  %.pre = load i32, ptr %7, align 4, !tbaa !15
  br label %.critedge2

.critedge2:                                       ; preds = %.critedge2.loopexit, %.critedge
  %52 = phi i32 [ %.pre, %.critedge2.loopexit ], [ %43, %.critedge ]
  %53 = load i32, ptr %6, align 8, !tbaa !31
  %54 = icmp eq i32 %52, %53
  br i1 %54, label %55, label %.Vec_IntGrow.exit10_crit_edge.i

.Vec_IntGrow.exit10_crit_edge.i:                  ; preds = %.critedge2
  %.pre.i = load ptr, ptr %9, align 8, !tbaa !18
  br label %Vec_IntPush.exit

55:                                               ; preds = %.critedge2
  %56 = icmp slt i32 %52, 16
  br i1 %56, label %57, label %64

57:                                               ; preds = %55
  %58 = load ptr, ptr %9, align 8, !tbaa !18
  %.not9.i.i = icmp eq ptr %58, null
  br i1 %.not9.i.i, label %61, label %59

59:                                               ; preds = %57
  %60 = tail call dereferenceable_or_null(64) ptr @realloc(ptr noundef nonnull %58, i64 noundef 64) #23
  br label %Vec_IntGrow.exit.i

61:                                               ; preds = %57
  %62 = tail call noalias dereferenceable_or_null(64) ptr @malloc(i64 noundef 64) #24
  br label %Vec_IntGrow.exit.i

Vec_IntGrow.exit.i:                               ; preds = %61, %59
  %63 = phi ptr [ %60, %59 ], [ %62, %61 ]
  store ptr %63, ptr %9, align 8, !tbaa !18
  store i32 16, ptr %6, align 8, !tbaa !31
  br label %Vec_IntPush.exit

64:                                               ; preds = %55
  %65 = shl nuw nsw i32 %52, 1
  %66 = load ptr, ptr %9, align 8, !tbaa !18
  %.not9.i9.i = icmp eq ptr %66, null
  %67 = zext nneg i32 %65 to i64
  %68 = shl nuw nsw i64 %67, 2
  br i1 %.not9.i9.i, label %71, label %69

69:                                               ; preds = %64
  %70 = tail call ptr @realloc(ptr noundef nonnull %66, i64 noundef %68) #23
  br label %73

71:                                               ; preds = %64
  %72 = tail call noalias ptr @malloc(i64 noundef %68) #24
  br label %73

73:                                               ; preds = %71, %69
  %74 = phi ptr [ %70, %69 ], [ %72, %71 ]
  store ptr %74, ptr %9, align 8, !tbaa !18
  store i32 %65, ptr %6, align 8, !tbaa !31
  br label %Vec_IntPush.exit

Vec_IntPush.exit:                                 ; preds = %.Vec_IntGrow.exit10_crit_edge.i, %Vec_IntGrow.exit.i, %73
  %75 = phi ptr [ %.pre.i, %.Vec_IntGrow.exit10_crit_edge.i ], [ %74, %73 ], [ %63, %Vec_IntGrow.exit.i ]
  %76 = add nsw i32 %52, 1
  store i32 %76, ptr %7, align 4, !tbaa !15
  %77 = sext i32 %52 to i64
  %78 = getelementptr inbounds i32, ptr %75, i64 %77
  store i32 %1, ptr %78, align 4, !tbaa !19
  ret ptr %6
}